target datalayout = "e-m:e-p270:32:32-p271:32:32-p272:64:64-i64:64-i128:128-f80:128-n8:16:32:64-S128"
target triple = "x86_64-pc-linux-gnu"

%struct.ARKodeMemRec = type { ptr, double, ptr, i32, i32, double, double, ptr, i32, double, ptr, i32, i32, ptr, ptr, i32, ptr, ptr, i32, ptr, ptr, ptr, ptr, ptr, ptr, ptr, ptr, ptr, ptr, ptr, ptr, ptr, ptr, ptr, i32, ptr, ptr, i32, ptr, i32, ptr, ptr, ptr, ptr, ptr, ptr, ptr, ptr, ptr, ptr, ptr, ptr, ptr, ptr, ptr, ptr, ptr, ptr, ptr, ptr, ptr, ptr, ptr, ptr, ptr, ptr, i32, ptr, ptr, ptr, ptr, ptr, ptr, ptr, i32, ptr, ptr, ptr, i32, ptr, ptr, ptr, ptr, ptr, ptr, ptr, i32, i32, i32, i32, double, double, double, double, double, double, double, double, double, double, i32, ptr, i64, i32, i32, i32, i32, i64, i64, i32, i64, i64, i64, i64, i64, i64, i64, double, double, double, double, double, i32, double, double, i32, i32, i32, i32, i32, i32, i32, i32, ptr, i32, ptr, ptr, ptr, ptr, i32, i32, i32 }
%struct.ARKodeMRIStepMemRec = type { ptr, ptr, i32, i32, i32, i32, i32, ptr, ptr, i32, i32, i32, ptr, i32, i32, i32, i32, i32, ptr, ptr, ptr, ptr, ptr, ptr, ptr, i32, ptr, i32, ptr, double, double, double, double, i32, double, double, double, double, double, double, i32, i64, i32, i32, i32, ptr, ptr, ptr, ptr, ptr, ptr, ptr, ptr, ptr, double, double, double, i64, i64, i64, i64, i64, i64, i32, i32, i32, double, double, ptr, i32, ptr, ptr }

@.str = private unnamed_addr constant [123 x i8] c"generated/home/dtcxzyw/WorkSpace/Projects/compilers/llvm-opt-benchmark/bench/sundials/sundials/src/arkode/arkode_mristep.c\00", align 1
@.str.75 = private unnamed_addr constant [33 x i8] c"Time step module memory is NULL.\00", align 1
@__func__.mriStep_StageSetup = private unnamed_addr constant [19 x i8] c"mriStep_StageSetup\00", align 1

; Function Attrs: nounwind uwtable
define i32 @mriStep_StageSetup(ptr noundef %0) #0 {
  %2 = alloca i32, align 4
  %3 = alloca ptr, align 8
  %4 = alloca ptr, align 8
  %5 = alloca i32, align 4
  %6 = alloca i32, align 4
  %7 = alloca i32, align 4
  %8 = alloca i32, align 4
  %9 = alloca ptr, align 8
  %10 = alloca ptr, align 8
  %11 = alloca i32, align 4
  store ptr %0, ptr %3, align 8, !tbaa !17
  call void @llvm.lifetime.start.p0(i64 8, ptr %4) #8
  call void @llvm.lifetime.start.p0(i64 4, ptr %5) #8
  call void @llvm.lifetime.start.p0(i64 4, ptr %6) #8
  call void @llvm.lifetime.start.p0(i64 4, ptr %7) #8
  call void @llvm.lifetime.start.p0(i64 4, ptr %8) #8
  call void @llvm.lifetime.start.p0(i64 8, ptr %9) #8
  call void @llvm.lifetime.start.p0(i64 8, ptr %10) #8
  %12 = load ptr, ptr %3, align 8, !tbaa !17
  %13 = getelementptr inbounds nuw %struct.ARKodeMemRec, ptr %12, i32 0, i32 19
  %14 = load ptr, ptr %13, align 8, !tbaa !70
  %15 = icmp eq ptr %14, null
  br i1 %15, label %16, label %17

16:                                               ; preds = %1
  call void (ptr, i32, i32, ptr, ptr, ptr, ...) @arkProcessError(ptr noundef null, i32 noundef -21, i32 noundef 4088, ptr noundef @__func__.mriStep_StageSetup, ptr noundef @.str, ptr noundef @.str.75)
  store i32 -21, ptr %2, align 4
  store i32 1, ptr %11, align 4
  br label %221

17:                                               ; preds = %1
  %18 = load ptr, ptr %3, align 8, !tbaa !17
  %19 = getelementptr inbounds nuw %struct.ARKodeMemRec, ptr %18, i32 0, i32 19
  %20 = load ptr, ptr %19, align 8, !tbaa !70
  store ptr %20, ptr %4, align 8, !tbaa !19
  %21 = load ptr, ptr %4, align 8, !tbaa !19
  %22 = getelementptr inbounds nuw %struct.ARKodeMRIStepMemRec, ptr %21, i32 0, i32 25
  %23 = load i32, ptr %22, align 8, !tbaa !203
  store i32 %23, ptr %6, align 4, !tbaa !15
  %24 = load ptr, ptr %4, align 8, !tbaa !19
  %25 = getelementptr inbounds nuw %struct.ARKodeMRIStepMemRec, ptr %24, i32 0, i32 70
  %26 = load ptr, ptr %25, align 8, !tbaa !103
  store ptr %26, ptr %9, align 8, !tbaa !125
  %27 = load ptr, ptr %4, align 8, !tbaa !19
  %28 = getelementptr inbounds nuw %struct.ARKodeMRIStepMemRec, ptr %27, i32 0, i32 71
  %29 = load ptr, ptr %28, align 8, !tbaa !104
  store ptr %29, ptr %10, align 8, !tbaa !216
  %30 = load ptr, ptr %3, align 8, !tbaa !17
  %31 = getelementptr inbounds nuw %struct.ARKodeMemRec, ptr %30, i32 0, i32 92
  %32 = load double, ptr %31, align 8, !tbaa !192
  %33 = load ptr, ptr %4, align 8, !tbaa !19
  %34 = getelementptr inbounds nuw %struct.ARKodeMRIStepMemRec, ptr %33, i32 0, i32 21
  %35 = load ptr, ptr %34, align 8, !tbaa !155
  %36 = load ptr, ptr %4, align 8, !tbaa !19
  %37 = getelementptr inbounds nuw %struct.ARKodeMRIStepMemRec, ptr %36, i32 0, i32 18
  %38 = load ptr, ptr %37, align 8, !tbaa !152
  %39 = load i32, ptr %6, align 4, !tbaa !15
  %40 = sext i32 %39 to i64
  %41 = getelementptr inbounds i32, ptr %38, i64 %40
  %42 = load i32, ptr %41, align 4, !tbaa !15
  %43 = sext i32 %42 to i64
  %44 = getelementptr inbounds double, ptr %35, i64 %43
  %45 = load double, ptr %44, align 8, !tbaa !7
  %46 = fmul double %32, %45
  %47 = load ptr, ptr %4, align 8, !tbaa !19
  %48 = getelementptr inbounds nuw %struct.ARKodeMRIStepMemRec, ptr %47, i32 0, i32 29
  store double %46, ptr %48, align 8, !tbaa !129
  %49 = load ptr, ptr %3, align 8, !tbaa !17
  %50 = getelementptr inbounds nuw %struct.ARKodeMemRec, ptr %49, i32 0, i32 130
  %51 = load i32, ptr %50, align 4, !tbaa !238
  %52 = icmp ne i32 %51, 0
  br i1 %52, label %53, label %59

53:                                               ; preds = %17
  %54 = load ptr, ptr %4, align 8, !tbaa !19
  %55 = getelementptr inbounds nuw %struct.ARKodeMRIStepMemRec, ptr %54, i32 0, i32 29
  %56 = load double, ptr %55, align 8, !tbaa !129
  %57 = load ptr, ptr %4, align 8, !tbaa !19
  %58 = getelementptr inbounds nuw %struct.ARKodeMRIStepMemRec, ptr %57, i32 0, i32 30
  store double %56, ptr %58, align 8, !tbaa !210
  br label %59

59:                                               ; preds = %53, %17
  %60 = load ptr, ptr %3, align 8, !tbaa !17
  %61 = getelementptr inbounds nuw %struct.ARKodeMemRec, ptr %60, i32 0, i32 130
  %62 = load i32, ptr %61, align 4, !tbaa !238
  %63 = icmp ne i32 %62, 0
  br i1 %63, label %64, label %65

64:                                               ; preds = %59
  br label %73

65:                                               ; preds = %59
  %66 = load ptr, ptr %4, align 8, !tbaa !19
  %67 = getelementptr inbounds nuw %struct.ARKodeMRIStepMemRec, ptr %66, i32 0, i32 29
  %68 = load double, ptr %67, align 8, !tbaa !129
  %69 = load ptr, ptr %4, align 8, !tbaa !19
  %70 = getelementptr inbounds nuw %struct.ARKodeMRIStepMemRec, ptr %69, i32 0, i32 30
  %71 = load double, ptr %70, align 8, !tbaa !210
  %72 = fdiv double %68, %71
  br label %73

73:                                               ; preds = %65, %64
  %74 = phi double [ 1.000000e+00, %64 ], [ %72, %65 ]
  %75 = load ptr, ptr %4, align 8, !tbaa !19
  %76 = getelementptr inbounds nuw %struct.ARKodeMRIStepMemRec, ptr %75, i32 0, i32 31
  store double %74, ptr %76, align 8, !tbaa !130
  %77 = load ptr, ptr %9, align 8, !tbaa !125
  %78 = getelementptr inbounds double, ptr %77, i64 0
  store double 1.000000e+00, ptr %78, align 8, !tbaa !7
  %79 = load ptr, ptr %3, align 8, !tbaa !17
  %80 = getelementptr inbounds nuw %struct.ARKodeMemRec, ptr %79, i32 0, i32 75
  %81 = load ptr, ptr %80, align 8, !tbaa !193
  %82 = load ptr, ptr %10, align 8, !tbaa !216
  %83 = getelementptr inbounds ptr, ptr %82, i64 0
  store ptr %81, ptr %83, align 8, !tbaa !9
  %84 = load ptr, ptr %9, align 8, !tbaa !125
  %85 = getelementptr inbounds double, ptr %84, i64 1
  store double -1.000000e+00, ptr %85, align 8, !tbaa !7
  %86 = load ptr, ptr %4, align 8, !tbaa !19
  %87 = getelementptr inbounds nuw %struct.ARKodeMRIStepMemRec, ptr %86, i32 0, i32 23
  %88 = load ptr, ptr %87, align 8, !tbaa !200
  %89 = load ptr, ptr %10, align 8, !tbaa !216
  %90 = getelementptr inbounds ptr, ptr %89, i64 1
  store ptr %88, ptr %90, align 8, !tbaa !9
  store i32 2, ptr %8, align 4, !tbaa !15
  store i32 0, ptr %7, align 4, !tbaa !15
  br label %91

91:                                               ; preds = %206, %73
  %92 = load i32, ptr %7, align 4, !tbaa !15
  %93 = load i32, ptr %6, align 4, !tbaa !15
  %94 = icmp slt i32 %92, %93
  br i1 %94, label %95, label %209

95:                                               ; preds = %91
  %96 = load ptr, ptr %4, align 8, !tbaa !19
  %97 = getelementptr inbounds nuw %struct.ARKodeMRIStepMemRec, ptr %96, i32 0, i32 4
  %98 = load i32, ptr %97, align 8, !tbaa !81
  %99 = icmp ne i32 %98, 0
  br i1 %99, label %100, label %150

100:                                              ; preds = %95
  %101 = load ptr, ptr %4, align 8, !tbaa !19
  %102 = getelementptr inbounds nuw %struct.ARKodeMRIStepMemRec, ptr %101, i32 0, i32 18
  %103 = load ptr, ptr %102, align 8, !tbaa !152
  %104 = load i32, ptr %7, align 4, !tbaa !15
  %105 = sext i32 %104 to i64
  %106 = getelementptr inbounds i32, ptr %103, i64 %105
  %107 = load i32, ptr %106, align 4, !tbaa !15
  %108 = icmp sgt i32 %107, -1
  br i1 %108, label %109, label %150

109:                                              ; preds = %100
  %110 = load ptr, ptr %3, align 8, !tbaa !17
  %111 = getelementptr inbounds nuw %struct.ARKodeMemRec, ptr %110, i32 0, i32 92
  %112 = load double, ptr %111, align 8, !tbaa !192
  %113 = load ptr, ptr %4, align 8, !tbaa !19
  %114 = getelementptr inbounds nuw %struct.ARKodeMRIStepMemRec, ptr %113, i32 0, i32 20
  %115 = load ptr, ptr %114, align 8, !tbaa !154
  %116 = load ptr, ptr %4, align 8, !tbaa !19
  %117 = getelementptr inbounds nuw %struct.ARKodeMRIStepMemRec, ptr %116, i32 0, i32 18
  %118 = load ptr, ptr %117, align 8, !tbaa !152
  %119 = load i32, ptr %7, align 4, !tbaa !15
  %120 = sext i32 %119 to i64
  %121 = getelementptr inbounds i32, ptr %118, i64 %120
  %122 = load i32, ptr %121, align 4, !tbaa !15
  %123 = sext i32 %122 to i64
  %124 = getelementptr inbounds double, ptr %115, i64 %123
  %125 = load double, ptr %124, align 8, !tbaa !7
  %126 = fmul double %112, %125
  %127 = load ptr, ptr %9, align 8, !tbaa !125
  %128 = load i32, ptr %8, align 4, !tbaa !15
  %129 = sext i32 %128 to i64
  %130 = getelementptr inbounds double, ptr %127, i64 %129
  store double %126, ptr %130, align 8, !tbaa !7
  %131 = load ptr, ptr %4, align 8, !tbaa !19
  %132 = getelementptr inbounds nuw %struct.ARKodeMRIStepMemRec, ptr %131, i32 0, i32 7
  %133 = load ptr, ptr %132, align 8, !tbaa !162
  %134 = load ptr, ptr %4, align 8, !tbaa !19
  %135 = getelementptr inbounds nuw %struct.ARKodeMRIStepMemRec, ptr %134, i32 0, i32 18
  %136 = load ptr, ptr %135, align 8, !tbaa !152
  %137 = load i32, ptr %7, align 4, !tbaa !15
  %138 = sext i32 %137 to i64
  %139 = getelementptr inbounds i32, ptr %136, i64 %138
  %140 = load i32, ptr %139, align 4, !tbaa !15
  %141 = sext i32 %140 to i64
  %142 = getelementptr inbounds ptr, ptr %133, i64 %141
  %143 = load ptr, ptr %142, align 8, !tbaa !9
  %144 = load ptr, ptr %10, align 8, !tbaa !216
  %145 = load i32, ptr %8, align 4, !tbaa !15
  %146 = sext i32 %145 to i64
  %147 = getelementptr inbounds ptr, ptr %144, i64 %146
  store ptr %143, ptr %147, align 8, !tbaa !9
  %148 = load i32, ptr %8, align 4, !tbaa !15
  %149 = add nsw i32 %148, 1
  store i32 %149, ptr %8, align 4, !tbaa !15
  br label %150

150:                                              ; preds = %109, %100, %95
  %151 = load ptr, ptr %4, align 8, !tbaa !19
  %152 = getelementptr inbounds nuw %struct.ARKodeMRIStepMemRec, ptr %151, i32 0, i32 5
  %153 = load i32, ptr %152, align 4, !tbaa !82
  %154 = icmp ne i32 %153, 0
  br i1 %154, label %155, label %205

155:                                              ; preds = %150
  %156 = load ptr, ptr %4, align 8, !tbaa !19
  %157 = getelementptr inbounds nuw %struct.ARKodeMRIStepMemRec, ptr %156, i32 0, i32 18
  %158 = load ptr, ptr %157, align 8, !tbaa !152
  %159 = load i32, ptr %7, align 4, !tbaa !15
  %160 = sext i32 %159 to i64
  %161 = getelementptr inbounds i32, ptr %158, i64 %160
  %162 = load i32, ptr %161, align 4, !tbaa !15
  %163 = icmp sgt i32 %162, -1
  br i1 %163, label %164, label %205

164:                                              ; preds = %155
  %165 = load ptr, ptr %3, align 8, !tbaa !17
  %166 = getelementptr inbounds nuw %struct.ARKodeMemRec, ptr %165, i32 0, i32 92
  %167 = load double, ptr %166, align 8, !tbaa !192
  %168 = load ptr, ptr %4, align 8, !tbaa !19
  %169 = getelementptr inbounds nuw %struct.ARKodeMRIStepMemRec, ptr %168, i32 0, i32 21
  %170 = load ptr, ptr %169, align 8, !tbaa !155
  %171 = load ptr, ptr %4, align 8, !tbaa !19
  %172 = getelementptr inbounds nuw %struct.ARKodeMRIStepMemRec, ptr %171, i32 0, i32 18
  %173 = load ptr, ptr %172, align 8, !tbaa !152
  %174 = load i32, ptr %7, align 4, !tbaa !15
  %175 = sext i32 %174 to i64
  %176 = getelementptr inbounds i32, ptr %173, i64 %175
  %177 = load i32, ptr %176, align 4, !tbaa !15
  %178 = sext i32 %177 to i64
  %179 = getelementptr inbounds double, ptr %170, i64 %178
  %180 = load double, ptr %179, align 8, !tbaa !7
  %181 = fmul double %167, %180
  %182 = load ptr, ptr %9, align 8, !tbaa !125
  %183 = load i32, ptr %8, align 4, !tbaa !15
  %184 = sext i32 %183 to i64
  %185 = getelementptr inbounds double, ptr %182, i64 %184
  store double %181, ptr %185, align 8, !tbaa !7
  %186 = load ptr, ptr %4, align 8, !tbaa !19
  %187 = getelementptr inbounds nuw %struct.ARKodeMRIStepMemRec, ptr %186, i32 0, i32 8
  %188 = load ptr, ptr %187, align 8, !tbaa !161
  %189 = load ptr, ptr %4, align 8, !tbaa !19
  %190 = getelementptr inbounds nuw %struct.ARKodeMRIStepMemRec, ptr %189, i32 0, i32 18
  %191 = load ptr, ptr %190, align 8, !tbaa !152
  %192 = load i32, ptr %7, align 4, !tbaa !15
  %193 = sext i32 %192 to i64
  %194 = getelementptr inbounds i32, ptr %191, i64 %193
  %195 = load i32, ptr %194, align 4, !tbaa !15
  %196 = sext i32 %195 to i64
  %197 = getelementptr inbounds ptr, ptr %188, i64 %196
  %198 = load ptr, ptr %197, align 8, !tbaa !9
  %199 = load ptr, ptr %10, align 8, !tbaa !216
  %200 = load i32, ptr %8, align 4, !tbaa !15
  %201 = sext i32 %200 to i64
  %202 = getelementptr inbounds ptr, ptr %199, i64 %201
  store ptr %198, ptr %202, align 8, !tbaa !9
  %203 = load i32, ptr %8, align 4, !tbaa !15
  %204 = add nsw i32 %203, 1
  store i32 %204, ptr %8, align 4, !tbaa !15
  br label %205

205:                                              ; preds = %164, %155, %150
  br label %206

206:                                              ; preds = %205
  %207 = load i32, ptr %7, align 4, !tbaa !15
  %208 = add nsw i32 %207, 1
  store i32 %208, ptr %7, align 4, !tbaa !15
  br label %91

209:                                              ; preds = %91
  %210 = load i32, ptr %8, align 4, !tbaa !15
  %211 = load ptr, ptr %9, align 8, !tbaa !125
  %212 = load ptr, ptr %10, align 8, !tbaa !216
  %213 = load ptr, ptr %4, align 8, !tbaa !19
  %214 = getelementptr inbounds nuw %struct.ARKodeMRIStepMemRec, ptr %213, i32 0, i32 22
  %215 = load ptr, ptr %214, align 8, !tbaa !180
  %216 = call i32 @N_VLinearCombination(i32 noundef %210, ptr noundef %211, ptr noundef %212, ptr noundef %215)
  store i32 %216, ptr %5, align 4, !tbaa !15
  %217 = load i32, ptr %5, align 4, !tbaa !15
  %218 = icmp ne i32 %217, 0
  br i1 %218, label %219, label %220

219:                                              ; preds = %209
  store i32 -28, ptr %2, align 4
  store i32 1, ptr %11, align 4
  br label %221

220:                                              ; preds = %209
  store i32 0, ptr %2, align 4
  store i32 1, ptr %11, align 4
  br label %221

221:                                              ; preds = %220, %219, %16
  call void @llvm.lifetime.end.p0(i64 8, ptr %10) #8
  call void @llvm.lifetime.end.p0(i64 8, ptr %9) #8
  call void @llvm.lifetime.end.p0(i64 4, ptr %8) #8
  call void @llvm.lifetime.end.p0(i64 4, ptr %7) #8
  call void @llvm.lifetime.end.p0(i64 4, ptr %6) #8
  call void @llvm.lifetime.end.p0(i64 4, ptr %5) #8
  call void @llvm.lifetime.end.p0(i64 8, ptr %4) #8
  %222 = load i32, ptr %2, align 4
  ret i32 %222
}