; Function Attrs: nounwind uwtable
define range(i32 -28, 1) i32 @mriStep_StageSetup(ptr noundef readonly captures(none) %0) local_unnamed_addr #0 {
  %2 = getelementptr inbounds nuw i8, ptr %0, i64 136
  %3 = load ptr, ptr %2, align 8, !tbaa !71
  %4 = icmp eq ptr %3, null
  br i1 %4, label %5, label %6

5:                                                ; preds = %1
  tail call void (ptr, i32, i32, ptr, ptr, ptr, ...) @arkProcessError(ptr noundef null, i32 noundef -21, i32 noundef 4088, ptr noundef nonnull @__func__.mriStep_StageSetup, ptr noundef nonnull @.str, ptr noundef nonnull @.str.75) #14
  br label %118

6:                                                ; preds = %1
  %7 = getelementptr inbounds nuw i8, ptr %3, i64 160
  %8 = load i32, ptr %7, align 8, !tbaa !197
  %9 = getelementptr inbounds nuw i8, ptr %3, i64 504
  %10 = load ptr, ptr %9, align 8, !tbaa !93
  %11 = getelementptr inbounds nuw i8, ptr %3, i64 512
  %12 = load ptr, ptr %11, align 8, !tbaa !94
  %13 = getelementptr inbounds nuw i8, ptr %0, i64 704
  %14 = load double, ptr %13, align 8, !tbaa !185
  %15 = getelementptr inbounds nuw i8, ptr %3, i64 128
  %16 = load ptr, ptr %15, align 8, !tbaa !144
  %17 = getelementptr inbounds nuw i8, ptr %3, i64 104
  %18 = load ptr, ptr %17, align 8, !tbaa !141
  %19 = sext i32 %8 to i64
  %20 = getelementptr inbounds i32, ptr %18, i64 %19
  %21 = load i32, ptr %20, align 4, !tbaa !119
  %22 = sext i32 %21 to i64
  %23 = getelementptr inbounds double, ptr %16, i64 %22
  %24 = load double, ptr %23, align 8, !tbaa !115
  %25 = fmul double %14, %24
  %26 = getelementptr inbounds nuw i8, ptr %3, i64 192
  store double %25, ptr %26, align 8, !tbaa !114
  %27 = getelementptr inbounds nuw i8, ptr %0, i64 972
  %28 = load i32, ptr %27, align 4, !tbaa !225
  %.not = icmp eq i32 %28, 0
  %29 = getelementptr inbounds nuw i8, ptr %3, i64 200
  br i1 %.not, label %31, label %30

30:                                               ; preds = %6
  store double %25, ptr %29, align 8, !tbaa !207
  br label %34

31:                                               ; preds = %6
  %32 = load double, ptr %29, align 8, !tbaa !207
  %33 = fdiv double %25, %32
  br label %34

34:                                               ; preds = %30, %31
  %35 = phi double [ %33, %31 ], [ 1.000000e+00, %30 ]
  %36 = getelementptr inbounds nuw i8, ptr %3, i64 208
  store double %35, ptr %36, align 8, !tbaa !116
  store double 1.000000e+00, ptr %10, align 8, !tbaa !115
  %37 = getelementptr inbounds nuw i8, ptr %0, i64 584
  %38 = load ptr, ptr %37, align 8, !tbaa !186
  store ptr %38, ptr %12, align 8, !tbaa !167
  %39 = getelementptr inbounds nuw i8, ptr %10, i64 8
  store double -1.000000e+00, ptr %39, align 8, !tbaa !115
  %40 = getelementptr inbounds nuw i8, ptr %3, i64 144
  %41 = load ptr, ptr %40, align 8, !tbaa !195
  %42 = getelementptr inbounds nuw i8, ptr %12, i64 8
  store ptr %41, ptr %42, align 8, !tbaa !167
  %43 = icmp sgt i32 %8, 0
  br i1 %43, label %.lr.ph, label %._crit_edge

.lr.ph:                                           ; preds = %34
  %44 = getelementptr inbounds nuw i8, ptr %3, i64 24
  %45 = load i32, ptr %44, align 8, !tbaa !83
  %.not68 = icmp eq i32 %45, 0
  %46 = getelementptr inbounds nuw i8, ptr %3, i64 120
  %47 = getelementptr inbounds nuw i8, ptr %3, i64 40
  %48 = getelementptr inbounds nuw i8, ptr %3, i64 28
  %49 = load i32, ptr %48, align 4, !tbaa !84
  %.not69 = icmp eq i32 %49, 0
  %50 = getelementptr inbounds nuw i8, ptr %3, i64 48
  br i1 %.not68, label %.lr.ph.split.us, label %.lr.ph.split

.lr.ph.split.us:                                  ; preds = %.lr.ph
  br i1 %.not69, label %._crit_edge, label %.lr.ph.split.us.split.preheader

.lr.ph.split.us.split.preheader:                  ; preds = %.lr.ph.split.us
  %wide.trip.count91 = zext nneg i32 %8 to i64
  br label %.lr.ph.split.us.split

.lr.ph.split.us.split:                            ; preds = %.lr.ph.split.us.split.preheader, %67
  %indvars.iv88 = phi i64 [ 0, %.lr.ph.split.us.split.preheader ], [ %indvars.iv.next89, %67 ]
  %.06270.us = phi i32 [ 2, %.lr.ph.split.us.split.preheader ], [ %.2.us, %67 ]
  %51 = getelementptr inbounds nuw i32, ptr %18, i64 %indvars.iv88
  %52 = load i32, ptr %51, align 4, !tbaa !119
  %53 = icmp sgt i32 %52, -1
  br i1 %53, label %54, label %67

54:                                               ; preds = %.lr.ph.split.us.split
  %55 = load double, ptr %13, align 8, !tbaa !185
  %56 = zext nneg i32 %52 to i64
  %57 = getelementptr inbounds nuw double, ptr %16, i64 %56
  %58 = load double, ptr %57, align 8, !tbaa !115
  %59 = fmul double %55, %58
  %60 = sext i32 %.06270.us to i64
  %61 = getelementptr inbounds double, ptr %10, i64 %60
  store double %59, ptr %61, align 8, !tbaa !115
  %62 = load ptr, ptr %50, align 8, !tbaa !150
  %63 = getelementptr inbounds nuw ptr, ptr %62, i64 %56
  %64 = load ptr, ptr %63, align 8, !tbaa !167
  %65 = getelementptr inbounds ptr, ptr %12, i64 %60
  store ptr %64, ptr %65, align 8, !tbaa !167
  %66 = add nsw i32 %.06270.us, 1
  br label %67

67:                                               ; preds = %54, %.lr.ph.split.us.split
  %.2.us = phi i32 [ %66, %54 ], [ %.06270.us, %.lr.ph.split.us.split ]
  %indvars.iv.next89 = add nuw nsw i64 %indvars.iv88, 1
  %exitcond92.not = icmp eq i64 %indvars.iv.next89, %wide.trip.count91
  br i1 %exitcond92.not, label %._crit_edge, label %.lr.ph.split.us.split

.lr.ph.split:                                     ; preds = %.lr.ph
  %wide.trip.count86 = zext nneg i32 %8 to i64
  br i1 %.not69, label %.lr.ph.split.split.us, label %.lr.ph.split.split

.lr.ph.split.split.us:                            ; preds = %.lr.ph.split, %85
  %indvars.iv83 = phi i64 [ %indvars.iv.next84, %85 ], [ 0, %.lr.ph.split ]
  %.06270.us73 = phi i32 [ %.1.us74, %85 ], [ 2, %.lr.ph.split ]
  %68 = getelementptr inbounds nuw i32, ptr %18, i64 %indvars.iv83
  %69 = load i32, ptr %68, align 4, !tbaa !119
  %70 = icmp sgt i32 %69, -1
  br i1 %70, label %71, label %85

71:                                               ; preds = %.lr.ph.split.split.us
  %72 = load double, ptr %13, align 8, !tbaa !185
  %73 = load ptr, ptr %46, align 8, !tbaa !143
  %74 = zext nneg i32 %69 to i64
  %75 = getelementptr inbounds nuw double, ptr %73, i64 %74
  %76 = load double, ptr %75, align 8, !tbaa !115
  %77 = fmul double %72, %76
  %78 = sext i32 %.06270.us73 to i64
  %79 = getelementptr inbounds double, ptr %10, i64 %78
  store double %77, ptr %79, align 8, !tbaa !115
  %80 = load ptr, ptr %47, align 8, !tbaa !151
  %81 = getelementptr inbounds nuw ptr, ptr %80, i64 %74
  %82 = load ptr, ptr %81, align 8, !tbaa !167
  %83 = getelementptr inbounds ptr, ptr %12, i64 %78
  store ptr %82, ptr %83, align 8, !tbaa !167
  %84 = add nsw i32 %.06270.us73, 1
  br label %85

85:                                               ; preds = %71, %.lr.ph.split.split.us
  %.1.us74 = phi i32 [ %84, %71 ], [ %.06270.us73, %.lr.ph.split.split.us ]
  %indvars.iv.next84 = add nuw nsw i64 %indvars.iv83, 1
  %exitcond87.not = icmp eq i64 %indvars.iv.next84, %wide.trip.count86
  br i1 %exitcond87.not, label %._crit_edge, label %.lr.ph.split.split.us

.lr.ph.split.split:                               ; preds = %.lr.ph.split, %114
  %indvars.iv = phi i64 [ %indvars.iv.next, %114 ], [ 0, %.lr.ph.split ]
  %.06270 = phi i32 [ %.2, %114 ], [ 2, %.lr.ph.split ]
  %86 = getelementptr inbounds nuw i32, ptr %18, i64 %indvars.iv
  %87 = load i32, ptr %86, align 4, !tbaa !119
  %88 = icmp sgt i32 %87, -1
  br i1 %88, label %89, label %114

89:                                               ; preds = %.lr.ph.split.split
  %90 = load double, ptr %13, align 8, !tbaa !185
  %91 = load ptr, ptr %46, align 8, !tbaa !143
  %92 = zext nneg i32 %87 to i64
  %93 = getelementptr inbounds nuw double, ptr %91, i64 %92
  %94 = load double, ptr %93, align 8, !tbaa !115
  %95 = fmul double %90, %94
  %96 = sext i32 %.06270 to i64
  %97 = getelementptr inbounds double, ptr %10, i64 %96
  store double %95, ptr %97, align 8, !tbaa !115
  %98 = load ptr, ptr %47, align 8, !tbaa !151
  %99 = getelementptr inbounds nuw ptr, ptr %98, i64 %92
  %100 = load ptr, ptr %99, align 8, !tbaa !167
  %101 = getelementptr inbounds ptr, ptr %12, i64 %96
  store ptr %100, ptr %101, align 8, !tbaa !167
  %102 = add nsw i32 %.06270, 1
  %103 = load double, ptr %13, align 8, !tbaa !185
  %104 = zext nneg i32 %87 to i64
  %105 = getelementptr inbounds nuw double, ptr %16, i64 %104
  %106 = load double, ptr %105, align 8, !tbaa !115
  %107 = fmul double %103, %106
  %108 = sext i32 %102 to i64
  %109 = getelementptr inbounds double, ptr %10, i64 %108
  store double %107, ptr %109, align 8, !tbaa !115
  %110 = load ptr, ptr %50, align 8, !tbaa !150
  %111 = getelementptr inbounds nuw ptr, ptr %110, i64 %104
  %112 = load ptr, ptr %111, align 8, !tbaa !167
  %113 = getelementptr inbounds ptr, ptr %12, i64 %108
  store ptr %112, ptr %113, align 8, !tbaa !167
  %.reass = add i32 %.06270, 2
  br label %114

114:                                              ; preds = %.lr.ph.split.split, %89
  %.2 = phi i32 [ %.reass, %89 ], [ %.06270, %.lr.ph.split.split ]
  %indvars.iv.next = add nuw nsw i64 %indvars.iv, 1
  %exitcond.not = icmp eq i64 %indvars.iv.next, %wide.trip.count86
  br i1 %exitcond.not, label %._crit_edge, label %.lr.ph.split.split

._crit_edge:                                      ; preds = %114, %85, %67, %.lr.ph.split.us, %34
  %.062.lcssa = phi i32 [ 2, %34 ], [ 2, %.lr.ph.split.us ], [ %.2.us, %67 ], [ %.1.us74, %85 ], [ %.2, %114 ]
  %115 = getelementptr inbounds nuw i8, ptr %3, i64 136
  %116 = load ptr, ptr %115, align 8, !tbaa !171
  %117 = tail call i32 @N_VLinearCombination(i32 noundef %.062.lcssa, ptr noundef nonnull %10, ptr noundef nonnull %12, ptr noundef %116) #14
  %.not67 = icmp eq i32 %117, 0
  %. = select i1 %.not67, i32 0, i32 -28
  br label %118

118:                                              ; preds = %._crit_edge, %5
  %.0 = phi i32 [ -21, %5 ], [ %., %._crit_edge ]
  ret i32 %.0
}